; Function Attrs: nounwind uwtable
define void @Fra_ManFinalizeComb(ptr noundef readonly captures(none) %0) local_unnamed_addr #2 {
  %2 = getelementptr inbounds nuw i8, ptr %0, i64 8
  %3 = load ptr, ptr %2, align 8, !tbaa !34
  %4 = getelementptr inbounds nuw i8, ptr %3, i64 24
  %5 = load ptr, ptr %4, align 8, !tbaa !74
  %6 = getelementptr i8, ptr %5, i64 4
  %.val9 = load i32, ptr %6, align 4, !tbaa !43
  %7 = icmp sgt i32 %.val9, 0
  br i1 %7, label %.lr.ph, label %.critedge

.lr.ph:                                           ; preds = %1
  %8 = getelementptr inbounds nuw i8, ptr %0, i64 16
  br label %9

9:                                                ; preds = %.lr.ph, %Fra_ObjChild0Fra.exit
  %indvars.iv = phi i64 [ 0, %.lr.ph ], [ %indvars.iv.next, %Fra_ObjChild0Fra.exit ]
  %10 = phi ptr [ %5, %.lr.ph ], [ %36, %Fra_ObjChild0Fra.exit ]
  %11 = getelementptr i8, ptr %10, i64 8
  %.val7 = load ptr, ptr %11, align 8, !tbaa !52
  %12 = getelementptr inbounds nuw ptr, ptr %.val7, i64 %indvars.iv
  %13 = load ptr, ptr %12, align 8, !tbaa !56
  %14 = load ptr, ptr %8, align 8, !tbaa !75
  %15 = getelementptr i8, ptr %13, i64 8
  %.val8 = load ptr, ptr %15, align 8, !tbaa !76
  %16 = ptrtoint ptr %.val8 to i64
  %17 = and i64 %16, -2
  %.not.i = icmp eq i64 %17, 0
  br i1 %.not.i, label %Fra_ObjChild0Fra.exit, label %18

18:                                               ; preds = %9
  %19 = inttoptr i64 %17 to ptr
  %20 = getelementptr i8, ptr %19, i64 36
  %.val4.i = load i32, ptr %20, align 4, !tbaa !69
  %21 = getelementptr i8, ptr %19, i64 40
  %.val5.i = load ptr, ptr %21, align 8, !tbaa !57
  %22 = getelementptr i8, ptr %.val5.i, i64 24
  %.val5.val.i = load i32, ptr %22, align 8, !tbaa !46
  %23 = getelementptr i8, ptr %.val5.i, i64 32
  %.val5.val6.i = load ptr, ptr %23, align 8, !tbaa !55
  %24 = mul nsw i32 %.val5.val.i, %.val4.i
  %25 = sext i32 %24 to i64
  %26 = getelementptr inbounds ptr, ptr %.val5.val6.i, i64 %25
  %27 = load ptr, ptr %26, align 8, !tbaa !70
  %28 = and i64 %16, 1
  %29 = ptrtoint ptr %27 to i64
  %30 = xor i64 %28, %29
  %31 = inttoptr i64 %30 to ptr
  br label %Fra_ObjChild0Fra.exit

Fra_ObjChild0Fra.exit:                            ; preds = %9, %18
  %32 = phi ptr [ %31, %18 ], [ null, %9 ]
  %33 = tail call ptr @Aig_ObjCreateCo(ptr noundef %14, ptr noundef %32) #15
  %indvars.iv.next = add nuw nsw i64 %indvars.iv, 1
  %34 = load ptr, ptr %2, align 8, !tbaa !34
  %35 = getelementptr inbounds nuw i8, ptr %34, i64 24
  %36 = load ptr, ptr %35, align 8, !tbaa !74
  %37 = getelementptr i8, ptr %36, i64 4
  %.val = load i32, ptr %37, align 4, !tbaa !43
  %38 = sext i32 %.val to i64
  %39 = icmp slt i64 %indvars.iv.next, %38
  br i1 %39, label %9, label %.critedge, !llvm.loop !77

.critedge:                                        ; preds = %Fra_ObjChild0Fra.exit, %1
  %40 = getelementptr inbounds nuw i8, ptr %0, i64 16
  %41 = load ptr, ptr %40, align 8, !tbaa !75
  tail call void @Aig_ManCleanMarkB(ptr noundef %41) #15
  ret void
}